ccopy_reg
_reconstructor
p1
(cmodel
Model
p2
c__builtin__
object
p3
NtRp4
(dp5
S'base_folder_name'
p6
S'/Users/atul/Documents/workspace_charm/game_playing/games/gridworld'
p7
sS'exists'
p8
I01
sS'all_possible_decisions'
p9
(lp10
S'up'
p11
aS'down'
p12
aS'left'
p13
aS'right'
p14
asS'buffer'
p15
I0
sS'design_matrix_cache'
p16
(dp17
sS'y'
NsS'cache_path'
p18
S'/Users/atul/Documents/workspace_charm/game_playing/games/gridworld/temp.cache'
p19
sS'model_path'
p20
S'/Users/atul/Documents/workspace_charm/game_playing/games/gridworld/model.vw'
p21
sS'X'
NsS'feature_constructor'
p22
NsS'model_class'
p23
S'vw_python'
p24
sS'model'
p25
Nsb.