ccopy_reg
_reconstructor
p1
(cmodel
Model
p2
c__builtin__
object
p3
NtRp4
(dp5
S'base_folder_name'
p6
S'/Users/atul/Documents/workspace_charm/game_playing/games/blackjack'
p7
sS'exists'
p8
I01
sS'all_possible_decisions'
p9
(lp10
S'hit'
p11
aS'stay'
p12
asS'buffer'
p13
I0
sS'design_matrix_cache'
p14
(dp15
sS'y'
NsS'cache_path'
p16
S'/Users/atul/Documents/workspace_charm/game_playing/games/blackjack/temp.cache'
p17
sS'model_path'
p18
S'/Users/atul/Documents/workspace_charm/game_playing/games/blackjack/model.vw'
p19
sS'X'
NsS'feature_constructor'
p20
NsS'model_class'
p21
S'vw_python'
p22
sS'model'
p23
Nsb.